; Function Attrs: nounwind uwtable
define range(i32 0, 2) i32 @OSSL_PARAM_BLD_push_octet_string(ptr noundef captures(none) %0, ptr noundef %1, ptr noundef %2, i64 noundef %3) local_unnamed_addr #0 {
  %5 = tail call i32 @CRYPTO_secure_allocated(ptr noundef %2) #7
  %6 = tail call noalias ptr @CRYPTO_zalloc(i64 noundef 56, ptr noundef nonnull @.str, i32 noundef 55) #7
  %7 = icmp eq ptr %6, null
  br i1 %7, label %param_push.exit.thread, label %8

8:                                                ; preds = %4
  store ptr %1, ptr %6, align 8, !tbaa !14
  %9 = getelementptr inbounds nuw i8, ptr %6, i64 8
  store i32 5, ptr %9, align 8, !tbaa !18
  %10 = getelementptr inbounds nuw i8, ptr %6, i64 16
  store i64 %3, ptr %10, align 8, !tbaa !19
  %11 = tail call i64 @ossl_param_bytes_to_blocks(i64 noundef %3) #7
  %12 = getelementptr inbounds nuw i8, ptr %6, i64 24
  store i64 %11, ptr %12, align 8, !tbaa !20
  %13 = getelementptr inbounds nuw i8, ptr %6, i64 12
  store i32 %5, ptr %13, align 4, !tbaa !21
  %.not.i = icmp eq i32 %5, 0
  br i1 %.not.i, label %18, label %14

14:                                               ; preds = %8
  %15 = getelementptr inbounds nuw i8, ptr %0, i64 8
  %16 = load i64, ptr %15, align 8, !tbaa !27
  %17 = add i64 %16, %11
  store i64 %17, ptr %15, align 8, !tbaa !27
  br label %21

18:                                               ; preds = %8
  %19 = load i64, ptr %0, align 8, !tbaa !22
  %20 = add i64 %19, %11
  store i64 %20, ptr %0, align 8, !tbaa !22
  br label %21

21:                                               ; preds = %18, %14
  %22 = getelementptr inbounds nuw i8, ptr %0, i64 16
  %23 = load ptr, ptr %22, align 8, !tbaa !3
  %24 = tail call i32 @OPENSSL_sk_push(ptr noundef %23, ptr noundef nonnull %6) #7
  %25 = icmp slt i32 %24, 1
  br i1 %25, label %26, label %param_push.exit

26:                                               ; preds = %21
  tail call void @CRYPTO_free(ptr noundef nonnull %6, ptr noundef nonnull @.str, i32 noundef 68) #7
  br label %param_push.exit.thread

param_push.exit:                                  ; preds = %21
  %27 = getelementptr inbounds nuw i8, ptr %6, i64 40
  store ptr %2, ptr %27, align 8, !tbaa !28
  br label %param_push.exit.thread

param_push.exit.thread:                           ; preds = %26, %4, %param_push.exit
  %.0 = phi i32 [ 1, %param_push.exit ], [ 0, %4 ], [ 0, %26 ]
  ret i32 %.0
}